target datalayout = "e-m:e-p270:32:32-p271:32:32-p272:64:64-i64:64-i128:128-f80:128-n8:16:32:64-S128"
target triple = "x86_64-pc-linux-gnu"

%struct.MpegEncContext = type { ptr, i32, i32, i32, [12 x i32], i32, %struct.ScanTable, %struct.ScanTable, [64 x i8], [64 x i8], ptr, ptr, i32, i32, i32, i32, i32, i32, i32, i32, i32, i32, i32, i32, i32, i32, i32, i32, i32, i32, i32, i32, i64, i64, ptr, %struct.BufferPoolContext, i32, i32, %union.anon, i32, %struct.MPVWorkPicture, %struct.MPVWorkPicture, %struct.MPVWorkPicture, i32, [3 x i32], ptr, [3 x ptr], ptr, ptr, ptr, ptr, ptr, ptr, [3 x ptr], i32, ptr, ptr, ptr, ptr, %struct.ScratchpadContext, i32, i32, i32, i32, i32, i32, %struct.BlockDSPContext, %struct.H264ChromaContext, %struct.HpelDSPContext, %struct.IDCTDSPContext, %struct.QpelDSPContext, %struct.VideoDSPContext, %struct.H263DSPContext, ptr, [2 x [2 x ptr]], i32, i32, [2 x [4 x [2 x i32]]], [2 x [2 x i32]], [2 x [2 x [2 x i32]]], [2 x [64 x i16]], i32, i32, i32, i32, i32, [6 x i32], [6 x i32], [3 x ptr], ptr, [64 x i16], [64 x i16], [64 x i16], [64 x i16], i32, i32, %struct.GetBitContext, i32, i32, i32, i32, i32, i32, i32, i32, i32, i32, i32, i32, i32, i32, i32, i64, i64, i16, i16, i16, i16, i32, i32, i32, i32, i32, i32, i32, i32, i32, [3 x i32], i32, i32, i32, i32, i32, i32, %struct.GetBitContext, i32, [2 x [2 x i32]], i32, i32, i32, i32, i32, i32, i32, i32, i32, i32, i32, i32, i32, i32, [2 x i32], i32, i32, ptr, ptr, ptr, ptr, ptr, i32, i32, %struct.ERContext }
%struct.ScanTable = type { ptr, [64 x i8], [64 x i8] }
%struct.BufferPoolContext = type { ptr, ptr, ptr, ptr, ptr, i32, i32, i32 }
%union.anon = type { [32 x ptr] }
%struct.MPVWorkPicture = type { [3 x ptr], [3 x i64], ptr, ptr, [2 x ptr], ptr, ptr, [2 x ptr], i32 }
%struct.ScratchpadContext = type { ptr, ptr, %union.anon.0, i32 }
%union.anon.0 = type { ptr }
%struct.BlockDSPContext = type { ptr, ptr, [2 x ptr] }
%struct.H264ChromaContext = type { [4 x ptr], [4 x ptr] }
%struct.HpelDSPContext = type { [4 x [4 x ptr]], [4 x [4 x ptr]], [4 x [4 x ptr]], [4 x ptr] }
%struct.IDCTDSPContext = type { ptr, ptr, ptr, ptr, ptr, ptr, [64 x i8], i32, i32 }
%struct.QpelDSPContext = type { [2 x [16 x ptr]], [2 x [16 x ptr]], [2 x [16 x ptr]] }
%struct.VideoDSPContext = type { ptr, ptr }
%struct.H263DSPContext = type { ptr, ptr }
%struct.GetBitContext = type { ptr, ptr, i32, i32, i32 }
%struct.ERContext = type { ptr, ptr, i32, ptr, i32, i32, i32, i64, i64, i32, i32, ptr, ptr, [3 x ptr], ptr, ptr, [2 x [4 x [2 x i32]]], %struct.ERPicture, %struct.ERPicture, %struct.ERPicture, [2 x ptr], [2 x ptr], i16, i16, i32, i32, ptr, ptr }
%struct.ERPicture = type { ptr, ptr, ptr, [2 x ptr], [2 x ptr], ptr, i32 }

; Function Attrs: nounwind uwtable
define void @ff_mpeg4_init_direct_mv(ptr noundef %0) #2 {
  %2 = alloca ptr, align 8
  %3 = alloca i32, align 4
  store ptr %0, ptr %2, align 8, !tbaa !8
  call void @llvm.lifetime.start.p0(i64 4, ptr %3) #6
  store i32 0, ptr %3, align 4, !tbaa !4
  br label %4

4:                                                ; preds = %51, %1
  %5 = load i32, ptr %3, align 4, !tbaa !4
  %6 = icmp slt i32 %5, 64
  br i1 %6, label %7, label %54

7:                                                ; preds = %4
  %8 = load i32, ptr %3, align 4, !tbaa !4
  %9 = sub nsw i32 %8, 32
  %10 = load ptr, ptr %2, align 8, !tbaa !8
  %11 = getelementptr inbounds nuw %struct.MpegEncContext, ptr %10, i32 0, i32 115
  %12 = load i16, ptr %11, align 2, !tbaa !43
  %13 = zext i16 %12 to i32
  %14 = mul nsw i32 %9, %13
  %15 = load ptr, ptr %2, align 8, !tbaa !8
  %16 = getelementptr inbounds nuw %struct.MpegEncContext, ptr %15, i32 0, i32 114
  %17 = load i16, ptr %16, align 8, !tbaa !44
  %18 = zext i16 %17 to i32
  %19 = sdiv i32 %14, %18
  %20 = trunc i32 %19 to i16
  %21 = load ptr, ptr %2, align 8, !tbaa !8
  %22 = getelementptr inbounds nuw %struct.MpegEncContext, ptr %21, i32 0, i32 80
  %23 = getelementptr inbounds [2 x [64 x i16]], ptr %22, i64 0, i64 0
  %24 = load i32, ptr %3, align 4, !tbaa !4
  %25 = sext i32 %24 to i64
  %26 = getelementptr inbounds [64 x i16], ptr %23, i64 0, i64 %25
  store i16 %20, ptr %26, align 2, !tbaa !45
  %27 = load i32, ptr %3, align 4, !tbaa !4
  %28 = sub nsw i32 %27, 32
  %29 = load ptr, ptr %2, align 8, !tbaa !8
  %30 = getelementptr inbounds nuw %struct.MpegEncContext, ptr %29, i32 0, i32 115
  %31 = load i16, ptr %30, align 2, !tbaa !43
  %32 = zext i16 %31 to i32
  %33 = load ptr, ptr %2, align 8, !tbaa !8
  %34 = getelementptr inbounds nuw %struct.MpegEncContext, ptr %33, i32 0, i32 114
  %35 = load i16, ptr %34, align 8, !tbaa !44
  %36 = zext i16 %35 to i32
  %37 = sub nsw i32 %32, %36
  %38 = mul nsw i32 %28, %37
  %39 = load ptr, ptr %2, align 8, !tbaa !8
  %40 = getelementptr inbounds nuw %struct.MpegEncContext, ptr %39, i32 0, i32 114
  %41 = load i16, ptr %40, align 8, !tbaa !44
  %42 = zext i16 %41 to i32
  %43 = sdiv i32 %38, %42
  %44 = trunc i32 %43 to i16
  %45 = load ptr, ptr %2, align 8, !tbaa !8
  %46 = getelementptr inbounds nuw %struct.MpegEncContext, ptr %45, i32 0, i32 80
  %47 = getelementptr inbounds [2 x [64 x i16]], ptr %46, i64 0, i64 1
  %48 = load i32, ptr %3, align 4, !tbaa !4
  %49 = sext i32 %48 to i64
  %50 = getelementptr inbounds [64 x i16], ptr %47, i64 0, i64 %49
  store i16 %44, ptr %50, align 2, !tbaa !45
  br label %51

51:                                               ; preds = %7
  %52 = load i32, ptr %3, align 4, !tbaa !4
  %53 = add nsw i32 %52, 1
  store i32 %53, ptr %3, align 4, !tbaa !4
  br label %4, !llvm.loop !46

54:                                               ; preds = %4
  call void @llvm.lifetime.end.p0(i64 4, ptr %3) #6
  ret void
}