; Function Attrs: nofree norecurse nosync nounwind memory(argmem: readwrite) uwtable
define void @ff_mpeg4_init_direct_mv(ptr noundef captures(none) %0) local_unnamed_addr #5 {
  %2 = getelementptr inbounds nuw i8, ptr %0, i64 4082
  %3 = getelementptr inbounds nuw i8, ptr %0, i64 4080
  %4 = getelementptr inbounds nuw i8, ptr %0, i64 3088
  %5 = getelementptr inbounds nuw i8, ptr %0, i64 3216
  br label %6

6:                                                ; preds = %1, %6
  %indvars.iv = phi i64 [ 0, %1 ], [ %indvars.iv.next, %6 ]
  %7 = load i16, ptr %2, align 2, !tbaa !41
  %8 = zext i16 %7 to i32
  %9 = trunc i64 %indvars.iv to i32
  %10 = add i32 %9, -32
  %11 = mul nsw i32 %10, %8
  %12 = load i16, ptr %3, align 8, !tbaa !42
  %13 = zext i16 %12 to i32
  %14 = sdiv i32 %11, %13
  %15 = trunc i32 %14 to i16
  %16 = getelementptr inbounds nuw [64 x i16], ptr %4, i64 0, i64 %indvars.iv
  store i16 %15, ptr %16, align 2, !tbaa !43
  %17 = load i16, ptr %2, align 2, !tbaa !41
  %18 = zext i16 %17 to i32
  %19 = load i16, ptr %3, align 8, !tbaa !42
  %20 = zext i16 %19 to i32
  %21 = sub nsw i32 %18, %20
  %22 = mul nsw i32 %21, %10
  %23 = sdiv i32 %22, %20
  %24 = trunc i32 %23 to i16
  %25 = getelementptr inbounds nuw [64 x i16], ptr %5, i64 0, i64 %indvars.iv
  store i16 %24, ptr %25, align 2, !tbaa !43
  %indvars.iv.next = add nuw nsw i64 %indvars.iv, 1
  %exitcond.not = icmp eq i64 %indvars.iv.next, 64
  br i1 %exitcond.not, label %26, label %6, !llvm.loop !44

26:                                               ; preds = %6
  ret void
}